; Function Attrs: null_pointer_is_valid sspstrong uwtable
define internal void @dissect_gtpv2_node_type(ptr noundef %0, ptr readnone captures(none) %1, ptr noundef %2, ptr noundef %3, i16 zeroext %4, i8 zeroext %5, i8 zeroext %6, ptr readnone captures(none) %7) #1 {
  %9 = load i32, ptr @hf_gtpv2_node_type, align 4
  %10 = tail call ptr @proto_tree_add_item(ptr noundef %2, i32 noundef %9, ptr noundef %0, i32 noundef 0, i32 noundef 1, i32 noundef 0)
  %11 = tail call zeroext i8 @tvb_get_uint8(ptr noundef %0, i32 noundef 0)
  %12 = zext i8 %11 to i32
  %13 = tail call ptr @val_to_str_const(i32 noundef %12, ptr noundef nonnull @gtpv2_node_type_vals, ptr noundef nonnull @.str.14)
  tail call void (ptr, ptr, ...) @proto_item_append_text(ptr noundef %3, ptr noundef nonnull @.str.1, ptr noundef %13)
  ret void
}